target datalayout = "e-m:e-p270:32:32-p271:32:32-p272:64:64-i64:64-i128:128-f80:128-n8:16:32:64-S128"
target triple = "x86_64-pc-linux-gnu"

%struct.darktable_t = type { %struct.dt_codepath_t, i32, i32, ptr, ptr, ptr, ptr, ptr, ptr, ptr, ptr, ptr, ptr, ptr, ptr, ptr, ptr, ptr, ptr, ptr, ptr, ptr, ptr, ptr, ptr, ptr, ptr, ptr, ptr, ptr, [64 x %struct.dt_pthread_mutex_t], %struct.dt_pthread_mutex_t, %struct.dt_pthread_mutex_t, %struct.dt_pthread_mutex_t, %struct.dt_pthread_mutex_t, %struct.dt_pthread_mutex_t, ptr, ptr, ptr, ptr, ptr, ptr, ptr, ptr, ptr, ptr, ptr, ptr, ptr, %struct.dt_lua_state_t, ptr, double, ptr, i32, [47 x i32], i32, i32, ptr, ptr, %struct.dt_sys_resources_t, %struct.dt_backthumb_t, %struct.dt_gimp_t }
%struct.dt_codepath_t = type { i8, [3 x i8] }
%struct.dt_pthread_mutex_t = type { %union.pthread_mutex_t }
%union.pthread_mutex_t = type { %struct.__pthread_mutex_s }
%struct.__pthread_mutex_s = type { i32, i32, i32, i32, i32, i16, i16, %struct.__pthread_internal_list }
%struct.__pthread_internal_list = type { ptr, ptr }
%struct.dt_lua_state_t = type { i32 }
%struct.dt_sys_resources_t = type { i64, i64, ptr, ptr, i32 }
%struct.dt_backthumb_t = type { double, double, i32, i32, i32, i32 }
%struct.dt_gimp_t = type { i32, ptr, ptr, i32, i32 }

@restart_required = global i32 0, align 4
@darktable = external global %struct.darktable_t, align 8
@.str.67 = private unnamed_addr constant [21 x i8] c"screen_dpi_overwrite\00", align 1

; Function Attrs: nounwind uwtable
define internal void @dpi_scaling_changed_callback(ptr noundef %0, ptr noundef %1) #0 {
  %3 = alloca ptr, align 8
  %4 = alloca ptr, align 8
  %5 = alloca float, align 4
  store ptr %0, ptr %3, align 8, !tbaa !6
  store ptr %1, ptr %4, align 8, !tbaa !61
  call void @llvm.lifetime.start.p0(i64 4, ptr %5) #10
  %6 = load ptr, ptr %3, align 8, !tbaa !6
  %7 = call i64 @gtk_spin_button_get_type() #11
  %8 = call ptr @g_type_check_instance_cast(ptr noundef %6, i64 noundef %7)
  %9 = call reassoc nsz arcp contract afn double @gtk_spin_button_get_value(ptr noundef %8)
  %10 = fptrunc reassoc nsz arcp contract afn double %9 to float
  store float %10, ptr %5, align 4, !tbaa !58
  %11 = load float, ptr %5, align 4, !tbaa !58
  %12 = fpext reassoc nsz arcp contract afn float %11 to double
  %13 = fcmp reassoc nsz arcp contract afn ogt double %12, 0.000000e+00
  br i1 %13, label %14, label %19

14:                                               ; preds = %2
  %15 = load float, ptr %5, align 4, !tbaa !58
  %16 = fpext reassoc nsz arcp contract afn float %15 to double
  %17 = call reassoc nsz arcp contract afn double @llvm.maxnum.f64(double 6.400000e+01, double %16)
  %18 = fptrunc reassoc nsz arcp contract afn double %17 to float
  store float %18, ptr %5, align 4, !tbaa !58
  br label %19

19:                                               ; preds = %14, %2
  %20 = load float, ptr %5, align 4, !tbaa !58
  call void @dt_conf_set_float(ptr noundef @.str.67, float noundef %20)
  store i32 1, ptr @restart_required, align 4, !tbaa !57
  %21 = load ptr, ptr getelementptr inbounds nuw (%struct.darktable_t, ptr @darktable, i32 0, i32 14), align 8, !tbaa !13
  call void @dt_configure_ppd_dpi(ptr noundef %21)
  call void (...) @dt_bauhaus_load_theme()
  call void @llvm.lifetime.end.p0(i64 4, ptr %5) #10
  ret void
}