; Function Attrs: nounwind uwtable
define internal void @dpi_scaling_changed_callback(ptr noundef %0, ptr readnone captures(none) %1) #0 {
  %3 = tail call i64 @gtk_spin_button_get_type() #13
  %4 = tail call ptr @g_type_check_instance_cast(ptr noundef %0, i64 noundef %3) #12
  %5 = tail call reassoc nsz arcp contract afn double @gtk_spin_button_get_value(ptr noundef %4) #12
  %6 = fptrunc reassoc nsz arcp contract afn double %5 to float
  %7 = fcmp reassoc nsz arcp contract afn ogt float %6, 0.000000e+00
  br i1 %7, label %8, label %12

8:                                                ; preds = %2
  %9 = fpext reassoc nsz arcp contract afn float %6 to double
  %10 = tail call reassoc nsz arcp contract afn double @llvm.maxnum.f64(double %9, double 6.400000e+01)
  %11 = fptrunc reassoc nsz arcp contract afn double %10 to float
  br label %12

12:                                               ; preds = %8, %2
  %.0 = phi nsz float [ %11, %8 ], [ %6, %2 ]
  tail call void @dt_conf_set_float(ptr noundef nonnull @.str.67, float noundef %.0) #12
  store i32 1, ptr @restart_required, align 4, !tbaa !62
  %13 = load ptr, ptr getelementptr inbounds nuw (i8, ptr @darktable, i64 104), align 8, !tbaa !6
  tail call void @dt_configure_ppd_dpi(ptr noundef %13) #12
  tail call void (...) @dt_bauhaus_load_theme() #12
  ret void
}